target datalayout = "e-m:e-p270:32:32-p271:32:32-p272:64:64-i64:64-i128:128-f80:128-n8:16:32:64-S128"
target triple = "x86_64-pc-linux-gnu"

%struct.SimpleDateData = type { i32, i32, i64, float, i32, i32 }
%struct.ComplexDateData = type { i32, i32, i64, float, i32, i32, i32, i32, i64 }

; Function Attrs: nounwind sspstrong uwtable
define internal void @c_jd_to_civil(i32 noundef %0, double noundef %1, ptr noundef %2, ptr noundef %3, ptr noundef %4) #0 {
  %6 = alloca i32, align 4
  %7 = alloca double, align 8
  %8 = alloca ptr, align 8
  %9 = alloca ptr, align 8
  %10 = alloca ptr, align 8
  %11 = alloca double, align 8
  %12 = alloca double, align 8
  %13 = alloca double, align 8
  %14 = alloca double, align 8
  %15 = alloca double, align 8
  %16 = alloca double, align 8
  %17 = alloca double, align 8
  %18 = alloca double, align 8
  %19 = alloca double, align 8
  store i32 %0, ptr %6, align 4, !tbaa !19
  store double %1, ptr %7, align 8, !tbaa !10
  store ptr %2, ptr %8, align 8, !tbaa !71
  store ptr %3, ptr %9, align 8, !tbaa !71
  store ptr %4, ptr %10, align 8, !tbaa !71
  call void @llvm.lifetime.start.p0(i64 8, ptr %11) #23
  call void @llvm.lifetime.start.p0(i64 8, ptr %12) #23
  call void @llvm.lifetime.start.p0(i64 8, ptr %13) #23
  call void @llvm.lifetime.start.p0(i64 8, ptr %14) #23
  call void @llvm.lifetime.start.p0(i64 8, ptr %15) #23
  call void @llvm.lifetime.start.p0(i64 8, ptr %16) #23
  call void @llvm.lifetime.start.p0(i64 8, ptr %17) #23
  call void @llvm.lifetime.start.p0(i64 8, ptr %18) #23
  call void @llvm.lifetime.start.p0(i64 8, ptr %19) #23
  %20 = load i32, ptr %6, align 4, !tbaa !19
  %21 = sitofp i32 %20 to double
  %22 = load double, ptr %7, align 8, !tbaa !10
  %23 = fcmp olt double %21, %22
  br i1 %23, label %24, label %27

24:                                               ; preds = %5
  %25 = load i32, ptr %6, align 4, !tbaa !19
  %26 = sitofp i32 %25 to double
  store double %26, ptr %12, align 8, !tbaa !10
  br label %42

27:                                               ; preds = %5
  %28 = load i32, ptr %6, align 4, !tbaa !19
  %29 = sitofp i32 %28 to double
  %30 = fsub double %29, 0x413C7DD040000000
  %31 = fdiv double %30, 0x40E1D58800000000
  %32 = call double @llvm.floor.f64(double %31)
  store double %32, ptr %11, align 8, !tbaa !10
  %33 = load i32, ptr %6, align 4, !tbaa !19
  %34 = add nsw i32 %33, 1
  %35 = sitofp i32 %34 to double
  %36 = load double, ptr %11, align 8, !tbaa !10
  %37 = fadd double %35, %36
  %38 = load double, ptr %11, align 8, !tbaa !10
  %39 = fdiv double %38, 4.000000e+00
  %40 = call double @llvm.floor.f64(double %39)
  %41 = fsub double %37, %40
  store double %41, ptr %12, align 8, !tbaa !10
  br label %42

42:                                               ; preds = %27, %24
  %43 = load double, ptr %12, align 8, !tbaa !10
  %44 = fadd double %43, 1.524000e+03
  store double %44, ptr %13, align 8, !tbaa !10
  %45 = load double, ptr %13, align 8, !tbaa !10
  %46 = fsub double %45, 1.221000e+02
  %47 = fdiv double %46, 3.652500e+02
  %48 = call double @llvm.floor.f64(double %47)
  store double %48, ptr %14, align 8, !tbaa !10
  %49 = load double, ptr %14, align 8, !tbaa !10
  %50 = fmul double 3.652500e+02, %49
  %51 = call double @llvm.floor.f64(double %50)
  store double %51, ptr %15, align 8, !tbaa !10
  %52 = load double, ptr %13, align 8, !tbaa !10
  %53 = load double, ptr %15, align 8, !tbaa !10
  %54 = fsub double %52, %53
  %55 = fdiv double %54, 3.060010e+01
  %56 = call double @llvm.floor.f64(double %55)
  store double %56, ptr %16, align 8, !tbaa !10
  %57 = load double, ptr %13, align 8, !tbaa !10
  %58 = load double, ptr %15, align 8, !tbaa !10
  %59 = fsub double %57, %58
  %60 = load double, ptr %16, align 8, !tbaa !10
  %61 = fmul double 3.060010e+01, %60
  %62 = call double @llvm.floor.f64(double %61)
  %63 = fsub double %59, %62
  store double %63, ptr %19, align 8, !tbaa !10
  %64 = load double, ptr %16, align 8, !tbaa !10
  %65 = fcmp ole double %64, 1.300000e+01
  br i1 %65, label %66, label %71

66:                                               ; preds = %42
  %67 = load double, ptr %16, align 8, !tbaa !10
  %68 = fsub double %67, 1.000000e+00
  store double %68, ptr %18, align 8, !tbaa !10
  %69 = load double, ptr %14, align 8, !tbaa !10
  %70 = fsub double %69, 4.716000e+03
  store double %70, ptr %17, align 8, !tbaa !10
  br label %76

71:                                               ; preds = %42
  %72 = load double, ptr %16, align 8, !tbaa !10
  %73 = fsub double %72, 1.300000e+01
  store double %73, ptr %18, align 8, !tbaa !10
  %74 = load double, ptr %14, align 8, !tbaa !10
  %75 = fsub double %74, 4.715000e+03
  store double %75, ptr %17, align 8, !tbaa !10
  br label %76

76:                                               ; preds = %71, %66
  %77 = load double, ptr %17, align 8, !tbaa !10
  %78 = fptosi double %77 to i32
  %79 = load ptr, ptr %8, align 8, !tbaa !71
  store i32 %78, ptr %79, align 4, !tbaa !19
  %80 = load double, ptr %18, align 8, !tbaa !10
  %81 = fptosi double %80 to i32
  %82 = load ptr, ptr %9, align 8, !tbaa !71
  store i32 %81, ptr %82, align 4, !tbaa !19
  %83 = load double, ptr %19, align 8, !tbaa !10
  %84 = fptosi double %83 to i32
  %85 = load ptr, ptr %10, align 8, !tbaa !71
  store i32 %84, ptr %85, align 4, !tbaa !19
  call void @llvm.lifetime.end.p0(i64 8, ptr %19) #23
  call void @llvm.lifetime.end.p0(i64 8, ptr %18) #23
  call void @llvm.lifetime.end.p0(i64 8, ptr %17) #23
  call void @llvm.lifetime.end.p0(i64 8, ptr %16) #23
  call void @llvm.lifetime.end.p0(i64 8, ptr %15) #23
  call void @llvm.lifetime.end.p0(i64 8, ptr %14) #23
  call void @llvm.lifetime.end.p0(i64 8, ptr %13) #23
  call void @llvm.lifetime.end.p0(i64 8, ptr %12) #23
  call void @llvm.lifetime.end.p0(i64 8, ptr %11) #23
  ret void
}

; Function Attrs: inlinehint nounwind sspstrong uwtable
define internal void @get_s_civil(ptr noundef %0) #3 {
  %2 = alloca ptr, align 8
  %3 = alloca i32, align 4
  %4 = alloca i32, align 4
  %5 = alloca i32, align 4
  store ptr %0, ptr %2, align 8, !tbaa !27
  %6 = load ptr, ptr %2, align 8, !tbaa !27
  %7 = load i32, ptr %6, align 8, !tbaa !38
  %8 = and i32 %7, 4
  %9 = icmp ne i32 %8, 0
  br i1 %9, label %30, label %10

10:                                               ; preds = %1
  call void @llvm.lifetime.start.p0(i64 4, ptr %3) #23
  call void @llvm.lifetime.start.p0(i64 4, ptr %4) #23
  call void @llvm.lifetime.start.p0(i64 4, ptr %5) #23
  %11 = load ptr, ptr %2, align 8, !tbaa !27
  %12 = getelementptr inbounds nuw %struct.SimpleDateData, ptr %11, i32 0, i32 1
  %13 = load i32, ptr %12, align 4, !tbaa !38
  %14 = load ptr, ptr %2, align 8, !tbaa !27
  %15 = call double @s_virtual_sg(ptr noundef %14)
  call void @c_jd_to_civil(i32 noundef %13, double noundef %15, ptr noundef %3, ptr noundef %4, ptr noundef %5)
  %16 = load i32, ptr %3, align 4, !tbaa !19
  %17 = load ptr, ptr %2, align 8, !tbaa !27
  %18 = getelementptr inbounds nuw %struct.SimpleDateData, ptr %17, i32 0, i32 4
  store i32 %16, ptr %18, align 4, !tbaa !38
  %19 = load i32, ptr %4, align 4, !tbaa !19
  %20 = shl i32 %19, 22
  %21 = load i32, ptr %5, align 4, !tbaa !19
  %22 = shl i32 %21, 17
  %23 = or i32 %20, %22
  %24 = load ptr, ptr %2, align 8, !tbaa !27
  %25 = getelementptr inbounds nuw %struct.SimpleDateData, ptr %24, i32 0, i32 5
  store i32 %23, ptr %25, align 8, !tbaa !38
  %26 = load ptr, ptr %2, align 8, !tbaa !27
  %27 = getelementptr inbounds nuw %struct.SimpleDateData, ptr %26, i32 0, i32 0
  %28 = load i32, ptr %27, align 8, !tbaa !38
  %29 = or i32 %28, 4
  store i32 %29, ptr %27, align 8, !tbaa !38
  call void @llvm.lifetime.end.p0(i64 4, ptr %5) #23
  call void @llvm.lifetime.end.p0(i64 4, ptr %4) #23
  call void @llvm.lifetime.end.p0(i64 4, ptr %3) #23
  br label %30

30:                                               ; preds = %10, %1
  ret void
}

; Function Attrs: inlinehint nounwind sspstrong uwtable
define internal i32 @m_mday(ptr noundef %0) #3 {
  %2 = alloca i32, align 4
  %3 = alloca ptr, align 8
  store ptr %0, ptr %3, align 8, !tbaa !27
  %4 = load ptr, ptr %3, align 8, !tbaa !27
  %5 = load i32, ptr %4, align 8, !tbaa !38
  %6 = and i32 %5, 128
  %7 = icmp ne i32 %6, 0
  br i1 %7, label %15, label %8

8:                                                ; preds = %1
  %9 = load ptr, ptr %3, align 8, !tbaa !27
  call void @get_s_civil(ptr noundef %9)
  %10 = load ptr, ptr %3, align 8, !tbaa !27
  %11 = getelementptr inbounds nuw %struct.SimpleDateData, ptr %10, i32 0, i32 5
  %12 = load i32, ptr %11, align 8, !tbaa !38
  %13 = lshr i32 %12, 17
  %14 = and i32 %13, 31
  store i32 %14, ptr %2, align 4
  br label %22

15:                                               ; preds = %1
  %16 = load ptr, ptr %3, align 8, !tbaa !27
  call void @get_c_civil(ptr noundef %16)
  %17 = load ptr, ptr %3, align 8, !tbaa !27
  %18 = getelementptr inbounds nuw %struct.ComplexDateData, ptr %17, i32 0, i32 5
  %19 = load i32, ptr %18, align 8, !tbaa !38
  %20 = lshr i32 %19, 17
  %21 = and i32 %20, 31
  store i32 %21, ptr %2, align 4
  br label %22

22:                                               ; preds = %15, %8
  %23 = load i32, ptr %2, align 4
  ret i32 %23
}