; Function Attrs: inlinehint nounwind sspstrong uwtable
define internal range(i32 0, 32) i32 @m_mday(ptr noundef captures(none) %0) #5 {
  %2 = load i32, ptr %0, align 8, !tbaa !47
  %3 = and i32 %2, 128
  %.not = icmp eq i32 %3, 0
  br i1 %.not, label %4, label %45

4:                                                ; preds = %1
  %5 = and i32 %2, 4
  %.not.i = icmp eq i32 %5, 0
  br i1 %.not.i, label %6, label %get_s_civil.exit

6:                                                ; preds = %4
  %7 = getelementptr inbounds nuw i8, ptr %0, i64 4
  %8 = load i32, ptr %7, align 4, !tbaa !47
  %9 = tail call fastcc double @s_virtual_sg(ptr noundef nonnull %0)
  %10 = sitofp i32 %8 to double
  %11 = fcmp ogt double %9, %10
  br i1 %11, label %c_jd_to_civil.exit.i, label %12

12:                                               ; preds = %6
  %13 = fadd double %10, 0xC13C7DD040000000
  %14 = fdiv double %13, 0x40E1D58800000000
  %15 = tail call double @llvm.floor.f64(double %14)
  %16 = add nsw i32 %8, 1
  %17 = sitofp i32 %16 to double
  %18 = fadd double %15, %17
  %19 = fmul double %15, 2.500000e-01
  %20 = tail call double @llvm.floor.f64(double %19)
  %21 = fsub double %18, %20
  br label %c_jd_to_civil.exit.i

c_jd_to_civil.exit.i:                             ; preds = %12, %6
  %.0.i.i = phi double [ %21, %12 ], [ %10, %6 ]
  %22 = fadd double %.0.i.i, 1.524000e+03
  %23 = fadd double %22, -1.221000e+02
  %24 = fdiv double %23, 3.652500e+02
  %25 = tail call double @llvm.floor.f64(double %24)
  %26 = fmul double %25, 3.652500e+02
  %27 = tail call double @llvm.floor.f64(double %26)
  %28 = fsub double %22, %27
  %29 = fdiv double %28, 3.060010e+01
  %30 = tail call double @llvm.floor.f64(double %29)
  %31 = fcmp ugt double %30, 1.300000e+01
  %.026.v.i.i = select i1 %31, double -4.715000e+03, double -4.716000e+03
  %.026.i.i = fadd double %25, %.026.v.i.i
  %.025.v.i.i = select i1 %31, double -1.300000e+01, double -1.000000e+00
  %.025.i.i = fadd double %30, %.025.v.i.i
  %32 = fmul double %30, 3.060010e+01
  %33 = tail call double @llvm.floor.f64(double %32)
  %34 = fsub double %28, %33
  %35 = fptosi double %.026.i.i to i32
  %36 = fptosi double %.025.i.i to i32
  %37 = fptosi double %34 to i32
  %38 = getelementptr inbounds nuw i8, ptr %0, i64 20
  store i32 %35, ptr %38, align 4, !tbaa !47
  %39 = shl i32 %36, 22
  %40 = shl i32 %37, 17
  %41 = or i32 %39, %40
  %42 = getelementptr inbounds nuw i8, ptr %0, i64 24
  store i32 %41, ptr %42, align 8, !tbaa !47
  %43 = load i32, ptr %0, align 8, !tbaa !47
  %44 = or i32 %43, 4
  store i32 %44, ptr %0, align 8, !tbaa !47
  br label %get_s_civil.exit

45:                                               ; preds = %1
  tail call fastcc void @get_c_civil(ptr noundef nonnull %0)
  br label %get_s_civil.exit

get_s_civil.exit:                                 ; preds = %c_jd_to_civil.exit.i, %4, %45
  %.0.in.in.in = getelementptr inbounds nuw i8, ptr %0, i64 24
  %.0.in.in = load i32, ptr %.0.in.in.in, align 8, !tbaa !47
  %.0.in = lshr i32 %.0.in.in, 17
  %.0 = and i32 %.0.in, 31
  ret i32 %.0
}